; Function Attrs: mustprogress nounwind uwtable
define dso_local void @_ZN4llvm30DiagnosticInfoOptimizationBase8ArgumentC2ENS_9StringRefEPKNS_4TypeE(ptr noundef nonnull align 8 dereferenceable(80) %0, ptr %1, i64 %2, ptr noundef %3) unnamed_addr #1 align 2 {
  %5 = alloca %"struct.std::__cxx11::basic_string<char>::__sv_wrapper", align 8
  %6 = alloca %"class.std::allocator", align 1
  %7 = alloca %"class.llvm::raw_string_ostream", align 8
  call void @_ZNSaIcEC1Ev(ptr noundef nonnull align 1 dereferenceable(1) %6) #16
  call void @llvm.lifetime.start.p0(i64 16, ptr nonnull %5)
  %8 = call { i64, ptr } @_ZNSt7__cxx1112basic_stringIcSt11char_traitsIcESaIcEE17_S_to_string_viewESt17basic_string_viewIcS2_E(i64 %2, ptr %1) #16
  %9 = extractvalue { i64, ptr } %8, 0
  %10 = extractvalue { i64, ptr } %8, 1
  call void @_ZNSt7__cxx1112basic_stringIcSt11char_traitsIcESaIcEE12__sv_wrapperC1ESt17basic_string_viewIcS2_E(ptr noundef nonnull align 8 dereferenceable(16) %5, i64 %9, ptr %10) #16
  %11 = load i64, ptr %5, align 8
  %12 = getelementptr inbounds nuw i8, ptr %5, i64 8
  %13 = load ptr, ptr %12, align 8
  call void @_ZNSt7__cxx1112basic_stringIcSt11char_traitsIcESaIcEEC2ENS4_12__sv_wrapperERKS3_(ptr noundef nonnull align 8 dereferenceable(32) %0, i64 %11, ptr %13, ptr noundef nonnull align 1 dereferenceable(1) %6) #16
  call void @llvm.lifetime.end.p0(i64 16, ptr nonnull %5)
  call void @_ZNSaIcED1Ev(ptr noundef nonnull align 1 dereferenceable(1) %6) #16
  %14 = getelementptr inbounds nuw i8, ptr %0, i64 32
  call void @_ZNSt7__cxx1112basic_stringIcSt11char_traitsIcESaIcEEC1Ev(ptr noundef nonnull align 8 dereferenceable(32) %14) #16
  %15 = getelementptr inbounds nuw i8, ptr %0, i64 64
  call void @llvm.memset.p0.i64(ptr noundef nonnull align 8 dereferenceable(16) %15, i8 0, i64 16, i1 false)
  %16 = getelementptr inbounds nuw i8, ptr %7, i64 8
  store i32 0, ptr %16, align 8
  %17 = getelementptr inbounds nuw i8, ptr %7, i64 40
  store i8 0, ptr %17, align 8
  %18 = getelementptr inbounds nuw i8, ptr %7, i64 44
  store i32 1, ptr %18, align 4
  %19 = getelementptr inbounds nuw i8, ptr %7, i64 16
  call void @llvm.memset.p0.i64(ptr noundef nonnull align 8 dereferenceable(24) %19, i8 0, i64 24, i1 false)
  store ptr getelementptr inbounds nuw inrange(-16, 104) (i8, ptr @_ZTVN4llvm18raw_string_ostreamE, i64 16), ptr %7, align 8
  %20 = getelementptr inbounds nuw i8, ptr %7, i64 48
  store ptr %14, ptr %20, align 8
  call void @_ZN4llvm11raw_ostream16SetBufferAndModeEPcmNS0_10BufferKindE(ptr noundef nonnull align 8 dereferenceable(56) %7, ptr noundef null, i64 noundef 0, i32 noundef 0) #16
  call void @_ZNK4llvm4Type5printERNS_11raw_ostreamEbb(ptr noundef nonnull align 8 dereferenceable(24) %3, ptr noundef nonnull align 8 dereferenceable(48) %7, i1 noundef zeroext false, i1 noundef zeroext false) #16
  call void @_ZN4llvm11raw_ostreamD2Ev(ptr noundef nonnull align 8 dereferenceable(56) %7) #16
  ret void
}